; Function Attrs: mustprogress nounwind uwtable
define dso_local void @_ZN4llvm15InstrProfSymtab15addFuncWithNameERNS_8FunctionENS_9StringRefE(ptr dead_on_unwind noalias writable sret(%"class.llvm::Error") align 8 %0, ptr noundef nonnull align 8 dereferenceable(385) %1, ptr noundef nonnull align 8 dereferenceable(136) %2, ptr %3, i64 %4) local_unnamed_addr #0 align 2 {
_ZN4llvm5ErrorD2Ev.exit:
  %5 = alloca %class.anon.166, align 8
  store ptr %1, ptr %5, align 8
  %6 = getelementptr inbounds nuw i8, ptr %5, i64 8
  store ptr %2, ptr %6, align 8
  call fastcc void @"_ZZN4llvm15InstrProfSymtab15addFuncWithNameERNS_8FunctionENS_9StringRefEENK3$_0clES3_"(ptr dead_on_unwind noalias writable align 8 %0, ptr noundef nonnull align 8 dereferenceable(16) %5, ptr %3, i64 %4)
  %7 = load ptr, ptr %0, align 8
  %.not = icmp eq ptr %7, null
  br i1 %.not, label %8, label %14

8:                                                ; preds = %_ZN4llvm5ErrorD2Ev.exit
  %9 = tail call { ptr, i64 } @_ZN4llvm15InstrProfSymtab16getCanonicalNameENS_9StringRefE(ptr %3, i64 %4)
  %10 = extractvalue { ptr, i64 } %9, 0
  %11 = extractvalue { ptr, i64 } %9, 1
  %.not.i.i = icmp eq i64 %11, %4
  br i1 %.not.i.i, label %12, label %_ZN4llvmneENS_9StringRefES0_.exit.thread

12:                                               ; preds = %8
  %13 = icmp eq i64 %4, 0
  br i1 %13, label %_ZN4llvm12ErrorSuccessD2Ev.exit, label %_ZN4llvmneENS_9StringRefES0_.exit

_ZN4llvmneENS_9StringRefES0_.exit:                ; preds = %12
  %bcmp.i.i = tail call i32 @bcmp(ptr %10, ptr %3, i64 %4)
  %.not21 = icmp eq i32 %bcmp.i.i, 0
  br i1 %.not21, label %_ZN4llvm12ErrorSuccessD2Ev.exit, label %_ZN4llvmneENS_9StringRefES0_.exit.thread

_ZN4llvmneENS_9StringRefES0_.exit.thread:         ; preds = %8, %_ZN4llvmneENS_9StringRefES0_.exit
  call fastcc void @"_ZZN4llvm15InstrProfSymtab15addFuncWithNameERNS_8FunctionENS_9StringRefEENK3$_0clES3_"(ptr dead_on_unwind noalias nonnull writable align 8 %0, ptr noundef nonnull align 8 dereferenceable(16) %5, ptr %10, i64 %11)
  br label %14

_ZN4llvm12ErrorSuccessD2Ev.exit:                  ; preds = %12, %_ZN4llvmneENS_9StringRefES0_.exit
  store ptr null, ptr %0, align 8
  br label %14

14:                                               ; preds = %_ZN4llvm5ErrorD2Ev.exit, %_ZN4llvm12ErrorSuccessD2Ev.exit, %_ZN4llvmneENS_9StringRefES0_.exit.thread
  ret void
}